(dp0
S'S23'
p1
ccollections
OrderedDict
p2
((lp3
(lp4
S'11R2_CV943'
p5
a(lp6
S'MQ.11R2.B1'
p7
aS'MB.A12R2.B1'
p8
aS'MB.B12R2.B1'
p9
aS'MB.C12R2.B1'
p10
aaa(lp11
S'13R2_CV947'
p12
a(lp13
S'MQ.12R2.B1'
p14
aS'MB.A13R2.B1'
p15
aS'MB.B13R2.B1'
p16
aS'MB.C13R2.B1'
p17
aaa(lp18
S'13R2_CV943'
p19
a(lp20
S'MQ.13R2.B1'
p21
aS'MB.A14R2.B1'
p22
aS'MB.B14R2.B1'
p23
aS'MB.C14R2.B1'
p24
aaa(lp25
S'15R2_CV947'
p26
a(lp27
S'MQ.14R2.B1'
p28
aS'MB.A15R2.B1'
p29
aS'MB.B15R2.B1'
p30
aS'MB.C15R2.B1'
p31
aaa(lp32
S'15R2_CV943'
p33
a(lp34
S'MQ.15R2.B1'
p35
aS'MB.A16R2.B1'
p36
aS'MB.B16R2.B1'
p37
aS'MB.C16R2.B1'
p38
aaa(lp39
S'17R2_CV947'
p40
a(lp41
S'MQ.16R2.B1'
p42
aS'MB.A17R2.B1'
p43
aS'MB.B17R2.B1'
p44
aS'MB.C17R2.B1'
p45
aaa(lp46
S'17R2_CV943'
p47
a(lp48
S'MQ.17R2.B1'
p49
aS'MB.A18R2.B1'
p50
aS'MB.B18R2.B1'
p51
aS'MB.C18R2.B1'
p52
aaa(lp53
S'19R2_CV947'
p54
a(lp55
S'MQ.18R2.B1'
p56
aS'MB.A19R2.B1'
p57
aS'MB.B19R2.B1'
p58
aS'MB.C19R2.B1'
p59
aaa(lp60
S'19R2_CV943'
p61
a(lp62
S'MQ.19R2.B1'
p63
aS'MB.A20R2.B1'
p64
aS'MB.B20R2.B1'
p65
aS'MB.C20R2.B1'
p66
aaa(lp67
S'21R2_CV947'
p68
a(lp69
S'MQ.20R2.B1'
p70
aS'MB.A21R2.B1'
p71
aS'MB.B21R2.B1'
p72
aS'MB.C21R2.B1'
p73
aaa(lp74
S'21R2_CV943'
p75
a(lp76
S'MQ.21R2.B1'
p77
aS'MB.A22R2.B1'
p78
aS'MB.B22R2.B1'
p79
aS'MB.C22R2.B1'
p80
aaa(lp81
S'23R2_CV947'
p82
a(lp83
S'MQ.22R2.B1'
p84
aS'MB.A23R2.B1'
p85
aS'MB.B23R2.B1'
p86
aS'MB.C23R2.B1'
p87
aaa(lp88
S'23R2_CV943'
p89
a(lp90
S'MQ.23R2.B1'
p91
aS'MB.A24R2.B1'
p92
aS'MB.B24R2.B1'
p93
aS'MB.C24R2.B1'
p94
aaa(lp95
S'25R2_CV947'
p96
a(lp97
S'MQ.24R2.B1'
p98
aS'MB.A25R2.B1'
p99
aS'MB.B25R2.B1'
p100
aS'MB.C25R2.B1'
p101
aaa(lp102
S'25R2_CV943'
p103
a(lp104
S'MQ.25R2.B1'
p105
aS'MB.A26R2.B1'
p106
aS'MB.B26R2.B1'
p107
aS'MB.C26R2.B1'
p108
aaa(lp109
S'27R2_CV947'
p110
a(lp111
S'MQ.26R2.B1'
p112
aS'MB.A27R2.B1'
p113
aS'MB.B27R2.B1'
p114
aS'MB.C27R2.B1'
p115
aaa(lp116
S'27R2_CV943'
p117
a(lp118
S'MQ.27R2.B1'
p119
aS'MB.A28R2.B1'
p120
aS'MB.B28R2.B1'
p121
aS'MB.C28R2.B1'
p122
aaa(lp123
S'29R2_CV947'
p124
a(lp125
S'MQ.28R2.B1'
p126
aS'MB.A29R2.B1'
p127
aS'MB.B29R2.B1'
p128
aS'MB.C29R2.B1'
p129
aaa(lp130
S'29R2_CV943'
p131
a(lp132
S'MQ.29R2.B1'
p133
aS'MB.A30R2.B1'
p134
aS'MB.B30R2.B1'
p135
aS'MB.C30R2.B1'
p136
aaa(lp137
S'31R2_CV947'
p138
a(lp139
S'MQ.30R2.B1'
p140
aS'MB.A31R2.B1'
p141
aS'MB.B31R2.B1'
p142
aS'MB.C31R2.B1'
p143
aaa(lp144
S'31R2_CV943'
p145
a(lp146
S'MQ.31R2.B1'
p147
aS'MB.A32R2.B1'
p148
aS'MB.B32R2.B1'
p149
aS'MB.C32R2.B1'
p150
aaa(lp151
S'33R2_CV947'
p152
a(lp153
S'MQ.32R2.B1'
p154
aS'MB.A33R2.B1'
p155
aS'MB.B33R2.B1'
p156
aS'MB.C33R2.B1'
p157
aaa(lp158
S'33R2_CV943'
p159
a(lp160
S'MQ.33R2.B1'
p161
aS'MB.A34R2.B1'
p162
aS'MB.B34R2.B1'
p163
aS'MB.C34R2.B1'
p164
aaa(lp165
S'33L3_CV947'
p166
a(lp167
S'MQ.34R2.B1'
p168
aS'MB.C34L3.B1'
p169
aS'MB.B34L3.B1'
p170
aS'MB.A34L3.B1'
p171
aaa(lp172
S'33L3_CV943'
p173
a(lp174
S'MQ.33L3.B1'
p175
aS'MB.C33L3.B1'
p176
aS'MB.B33L3.B1'
p177
aS'MB.A33L3.B1'
p178
aaa(lp179
S'31L3_CV947'
p180
a(lp181
S'MQ.32L3.B1'
p182
aS'MB.C32L3.B1'
p183
aS'MB.B32L3.B1'
p184
aS'MB.A32L3.B1'
p185
aaa(lp186
S'31L3_CV943'
p187
a(lp188
S'MQ.31L3.B1'
p189
aS'MB.C31L3.B1'
p190
aS'MB.B31L3.B1'
p191
aS'MB.A31L3.B1'
p192
aaa(lp193
S'29L3_CV947'
p194
a(lp195
S'MQ.30L3.B1'
p196
aS'MB.C30L3.B1'
p197
aS'MB.B30L3.B1'
p198
aS'MB.A30L3.B1'
p199
aaa(lp200
S'29L3_CV943'
p201
a(lp202
S'MQ.29L3.B1'
p203
aS'MB.C29L3.B1'
p204
aS'MB.B29L3.B1'
p205
aS'MB.A29L3.B1'
p206
aaa(lp207
S'27L3_CV947'
p208
a(lp209
S'MQ.28L3.B1'
p210
aS'MB.C28L3.B1'
p211
aS'MB.B28L3.B1'
p212
aS'MB.A28L3.B1'
p213
aaa(lp214
S'27L3_CV943'
p215
a(lp216
S'MQ.27L3.B1'
p217
aS'MB.C27L3.B1'
p218
aS'MB.B27L3.B1'
p219
aS'MB.A27L3.B1'
p220
aaa(lp221
S'25L3_CV947'
p222
a(lp223
S'MQ.26L3.B1'
p224
aS'MB.C26L3.B1'
p225
aS'MB.B26L3.B1'
p226
aS'MB.A26L3.B1'
p227
aaa(lp228
S'25L3_CV943'
p229
a(lp230
S'MQ.25L3.B1'
p231
aS'MB.C25L3.B1'
p232
aS'MB.B25L3.B1'
p233
aS'MB.A25L3.B1'
p234
aaa(lp235
S'23L3_CV947'
p236
a(lp237
S'MQ.24L3.B1'
p238
aS'MB.C24L3.B1'
p239
aS'MB.B24L3.B1'
p240
aS'MB.A24L3.B1'
p241
aaa(lp242
S'23L3_CV943'
p243
a(lp244
S'MQ.23L3.B1'
p245
aS'MB.C23L3.B1'
p246
aS'MB.B23L3.B1'
p247
aS'MB.A23L3.B1'
p248
aaa(lp249
S'21L3_CV947'
p250
a(lp251
S'MQ.22L3.B1'
p252
aS'MB.C22L3.B1'
p253
aS'MB.B22L3.B1'
p254
aS'MB.A22L3.B1'
p255
aaa(lp256
S'21L3_CV943'
p257
a(lp258
S'MQ.21L3.B1'
p259
aS'MB.C21L3.B1'
p260
aS'MB.B21L3.B1'
p261
aS'MB.A21L3.B1'
p262
aaa(lp263
S'19L3_CV947'
p264
a(lp265
S'MQ.20L3.B1'
p266
aS'MB.C20L3.B1'
p267
aS'MB.B20L3.B1'
p268
aS'MB.A20L3.B1'
p269
aaa(lp270
S'19L3_CV943'
p271
a(lp272
S'MQ.19L3.B1'
p273
aS'MB.C19L3.B1'
p274
aS'MB.B19L3.B1'
p275
aS'MB.A19L3.B1'
p276
aaa(lp277
S'17L3_CV947'
p278
a(lp279
S'MQ.18L3.B1'
p280
aS'MB.C18L3.B1'
p281
aS'MB.B18L3.B1'
p282
aS'MB.A18L3.B1'
p283
aaa(lp284
S'17L3_CV943'
p285
a(lp286
S'MQ.17L3.B1'
p287
aS'MB.C17L3.B1'
p288
aS'MB.B17L3.B1'
p289
aS'MB.A17L3.B1'
p290
aaa(lp291
S'15L3_CV947'
p292
a(lp293
S'MQ.16L3.B1'
p294
aS'MB.C16L3.B1'
p295
aS'MB.B16L3.B1'
p296
aS'MB.A16L3.B1'
p297
aaa(lp298
S'15L3_CV943'
p299
a(lp300
S'MQ.15L3.B1'
p301
aS'MB.C15L3.B1'
p302
aS'MB.B15L3.B1'
p303
aS'MB.A15L3.B1'
p304
aaa(lp305
S'13L3_CV947'
p306
a(lp307
S'MQ.14L3.B1'
p308
aS'MB.C14L3.B1'
p309
aS'MB.B14L3.B1'
p310
aS'MB.A14L3.B1'
p311
aaa(lp312
S'13L3_CV943'
p313
a(lp314
S'MQ.13L3.B1'
p315
aS'MB.C13L3.B1'
p316
aS'MB.B13L3.B1'
p317
aS'MB.A13L3.B1'
p318
aaa(lp319
S'11L3_CV947'
p320
a(lp321
S'MQ.12L3.B1'
p322
aS'MB.C12L3.B1'
p323
aS'MB.B12L3.B1'
p324
aS'MB.A12L3.B1'
p325
aaatp326
Rp327
sS'S45'
p328
g2
((lp329
(lp330
S'11R4_CV943'
p331
a(lp332
S'MQ.11R4.B1'
p333
aS'MB.A12R4.B1'
p334
aS'MB.B12R4.B1'
p335
aS'MB.C12R4.B1'
p336
aaa(lp337
S'13R4_CV947'
p338
a(lp339
S'MQ.12R4.B1'
p340
aS'MB.A13R4.B1'
p341
aS'MB.B13R4.B1'
p342
aS'MB.C13R4.B1'
p343
aaa(lp344
S'13R4_CV943'
p345
a(lp346
S'MQ.13R4.B1'
p347
aS'MB.A14R4.B1'
p348
aS'MB.B14R4.B1'
p349
aS'MB.C14R4.B1'
p350
aaa(lp351
S'15R4_CV947'
p352
a(lp353
S'MQ.14R4.B1'
p354
aS'MB.A15R4.B1'
p355
aS'MB.B15R4.B1'
p356
aS'MB.C15R4.B1'
p357
aaa(lp358
S'15R4_CV943'
p359
a(lp360
S'MQ.15R4.B1'
p361
aS'MB.A16R4.B1'
p362
aS'MB.B16R4.B1'
p363
aS'MB.C16R4.B1'
p364
aaa(lp365
S'17R4_CV947'
p366
a(lp367
S'MQ.16R4.B1'
p368
aS'MB.A17R4.B1'
p369
aS'MB.B17R4.B1'
p370
aS'MB.C17R4.B1'
p371
aaa(lp372
S'17R4_CV943'
p373
a(lp374
S'MQ.17R4.B1'
p375
aS'MB.A18R4.B1'
p376
aS'MB.B18R4.B1'
p377
aS'MB.C18R4.B1'
p378
aaa(lp379
S'19R4_CV947'
p380
a(lp381
S'MQ.18R4.B1'
p382
aS'MB.A19R4.B1'
p383
aS'MB.B19R4.B1'
p384
aS'MB.C19R4.B1'
p385
aaa(lp386
S'19R4_CV943'
p387
a(lp388
S'MQ.19R4.B1'
p389
aS'MB.A20R4.B1'
p390
aS'MB.B20R4.B1'
p391
aS'MB.C20R4.B1'
p392
aaa(lp393
S'21R4_CV947'
p394
a(lp395
S'MQ.20R4.B1'
p396
aS'MB.A21R4.B1'
p397
aS'MB.B21R4.B1'
p398
aS'MB.C21R4.B1'
p399
aaa(lp400
S'21R4_CV943'
p401
a(lp402
S'MQ.21R4.B1'
p403
aS'MB.A22R4.B1'
p404
aS'MB.B22R4.B1'
p405
aS'MB.C22R4.B1'
p406
aaa(lp407
S'23R4_CV947'
p408
a(lp409
S'MQ.22R4.B1'
p410
aS'MB.A23R4.B1'
p411
aS'MB.B23R4.B1'
p412
aS'MB.C23R4.B1'
p413
aaa(lp414
S'23R4_CV943'
p415
a(lp416
S'MQ.23R4.B1'
p417
aS'MB.A24R4.B1'
p418
aS'MB.B24R4.B1'
p419
aS'MB.C24R4.B1'
p420
aaa(lp421
S'25R4_CV947'
p422
a(lp423
S'MQ.24R4.B1'
p424
aS'MB.A25R4.B1'
p425
aS'MB.B25R4.B1'
p426
aS'MB.C25R4.B1'
p427
aaa(lp428
S'25R4_CV943'
p429
a(lp430
S'MQ.25R4.B1'
p431
aS'MB.A26R4.B1'
p432
aS'MB.B26R4.B1'
p433
aS'MB.C26R4.B1'
p434
aaa(lp435
S'27R4_CV947'
p436
a(lp437
S'MQ.26R4.B1'
p438
aS'MB.A27R4.B1'
p439
aS'MB.B27R4.B1'
p440
aS'MB.C27R4.B1'
p441
aaa(lp442
S'27R4_CV943'
p443
a(lp444
S'MQ.27R4.B1'
p445
aS'MB.A28R4.B1'
p446
aS'MB.B28R4.B1'
p447
aS'MB.C28R4.B1'
p448
aaa(lp449
S'29R4_CV947'
p450
a(lp451
S'MQ.28R4.B1'
p452
aS'MB.A29R4.B1'
p453
aS'MB.B29R4.B1'
p454
aS'MB.C29R4.B1'
p455
aaa(lp456
S'29R4_CV943'
p457
a(lp458
S'MQ.29R4.B1'
p459
aS'MB.A30R4.B1'
p460
aS'MB.B30R4.B1'
p461
aS'MB.C30R4.B1'
p462
aaa(lp463
S'31R4_CV947'
p464
a(lp465
S'MQ.30R4.B1'
p466
aS'MB.A31R4.B1'
p467
aS'MB.B31R4.B1'
p468
aS'MB.C31R4.B1'
p469
aaa(lp470
S'31R4_CV943'
p471
a(lp472
S'MQ.31R4.B1'
p473
aS'MB.A32R4.B1'
p474
aS'MB.B32R4.B1'
p475
aS'MB.C32R4.B1'
p476
aaa(lp477
S'33R4_CV947'
p478
a(lp479
S'MQ.32R4.B1'
p480
aS'MB.A33R4.B1'
p481
aS'MB.B33R4.B1'
p482
aS'MB.C33R4.B1'
p483
aaa(lp484
S'33R4_CV943'
p485
a(lp486
S'MQ.33R4.B1'
p487
aS'MB.A34R4.B1'
p488
aS'MB.B34R4.B1'
p489
aS'MB.C34R4.B1'
p490
aaa(lp491
S'33L5_CV947'
p492
a(lp493
S'MQ.34R4.B1'
p494
aS'MB.C34L5.B1'
p495
aS'MB.B34L5.B1'
p496
aS'MB.A34L5.B1'
p497
aaa(lp498
S'33L5_CV943'
p499
a(lp500
S'MQ.33L5.B1'
p501
aS'MB.C33L5.B1'
p502
aS'MB.B33L5.B1'
p503
aS'MB.A33L5.B1'
p504
aaa(lp505
S'31L5_CV947'
p506
a(lp507
S'MQ.32L5.B1'
p508
aS'MB.C32L5.B1'
p509
aS'MB.B32L5.B1'
p510
aS'MB.A32L5.B1'
p511
aaa(lp512
S'31L5_CV943'
p513
a(lp514
S'MQ.31L5.B1'
p515
aS'MB.C31L5.B1'
p516
aS'MB.B31L5.B1'
p517
aS'MB.A31L5.B1'
p518
aaa(lp519
S'29L5_CV947'
p520
a(lp521
S'MQ.30L5.B1'
p522
aS'MB.C30L5.B1'
p523
aS'MB.B30L5.B1'
p524
aS'MB.A30L5.B1'
p525
aaa(lp526
S'29L5_CV943'
p527
a(lp528
S'MQ.29L5.B1'
p529
aS'MB.C29L5.B1'
p530
aS'MB.B29L5.B1'
p531
aS'MB.A29L5.B1'
p532
aaa(lp533
S'27L5_CV947'
p534
a(lp535
S'MQ.28L5.B1'
p536
aS'MB.C28L5.B1'
p537
aS'MB.B28L5.B1'
p538
aS'MB.A28L5.B1'
p539
aaa(lp540
S'27L5_CV943'
p541
a(lp542
S'MQ.27L5.B1'
p543
aS'MB.C27L5.B1'
p544
aS'MB.B27L5.B1'
p545
aS'MB.A27L5.B1'
p546
aaa(lp547
S'25L5_CV947'
p548
a(lp549
S'MQ.26L5.B1'
p550
aS'MB.C26L5.B1'
p551
aS'MB.B26L5.B1'
p552
aS'MB.A26L5.B1'
p553
aaa(lp554
S'25L5_CV943'
p555
a(lp556
S'MQ.25L5.B1'
p557
aS'MB.C25L5.B1'
p558
aS'MB.B25L5.B1'
p559
aS'MB.A25L5.B1'
p560
aaa(lp561
S'23L5_CV947'
p562
a(lp563
S'MQ.24L5.B1'
p564
aS'MB.C24L5.B1'
p565
aS'MB.B24L5.B1'
p566
aS'MB.A24L5.B1'
p567
aaa(lp568
S'23L5_CV943'
p569
a(lp570
S'MQ.23L5.B1'
p571
aS'MB.C23L5.B1'
p572
aS'MB.B23L5.B1'
p573
aS'MB.A23L5.B1'
p574
aaa(lp575
S'21L5_CV947'
p576
a(lp577
S'MQ.22L5.B1'
p578
aS'MB.C22L5.B1'
p579
aS'MB.B22L5.B1'
p580
aS'MB.A22L5.B1'
p581
aaa(lp582
S'21L5_CV943'
p583
a(lp584
S'MQ.21L5.B1'
p585
aS'MB.C21L5.B1'
p586
aS'MB.B21L5.B1'
p587
aS'MB.A21L5.B1'
p588
aaa(lp589
S'19L5_CV947'
p590
a(lp591
S'MQ.20L5.B1'
p592
aS'MB.C20L5.B1'
p593
aS'MB.B20L5.B1'
p594
aS'MB.A20L5.B1'
p595
aaa(lp596
S'19L5_CV943'
p597
a(lp598
S'MQ.19L5.B1'
p599
aS'MB.C19L5.B1'
p600
aS'MB.B19L5.B1'
p601
aS'MB.A19L5.B1'
p602
aaa(lp603
S'17L5_CV947'
p604
a(lp605
S'MQ.18L5.B1'
p606
aS'MB.C18L5.B1'
p607
aS'MB.B18L5.B1'
p608
aS'MB.A18L5.B1'
p609
aaa(lp610
S'17L5_CV943'
p611
a(lp612
S'MQ.17L5.B1'
p613
aS'MB.C17L5.B1'
p614
aS'MB.B17L5.B1'
p615
aS'MB.A17L5.B1'
p616
aaa(lp617
S'15L5_CV947'
p618
a(lp619
S'MQ.16L5.B1'
p620
aS'MB.C16L5.B1'
p621
aS'MB.B16L5.B1'
p622
aS'MB.A16L5.B1'
p623
aaa(lp624
S'15L5_CV943'
p625
a(lp626
S'MQ.15L5.B1'
p627
aS'MB.C15L5.B1'
p628
aS'MB.B15L5.B1'
p629
aS'MB.A15L5.B1'
p630
aaa(lp631
S'13L5_CV947'
p632
a(lp633
S'MQ.14L5.B1'
p634
aS'MB.C14L5.B1'
p635
aS'MB.B14L5.B1'
p636
aS'MB.A14L5.B1'
p637
aaa(lp638
S'13L5_CV943'
p639
a(lp640
S'MQ.13L5.B1'
p641
aS'MB.C13L5.B1'
p642
aS'MB.B13L5.B1'
p643
aS'MB.A13L5.B1'
p644
aaa(lp645
S'11L5_CV947'
p646
a(lp647
S'MQ.12L5.B1'
p648
aS'MB.C12L5.B1'
p649
aS'MB.B12L5.B1'
p650
aS'MB.A12L5.B1'
p651
aaatp652
Rp653
sS'S34'
p654
g2
((lp655
(lp656
S'11R3_CV943'
p657
a(lp658
S'MQ.11R3.B1'
p659
aS'MB.A12R3.B1'
p660
aS'MB.B12R3.B1'
p661
aS'MB.C12R3.B1'
p662
aaa(lp663
S'13R3_CV947'
p664
a(lp665
S'MQ.12R3.B1'
p666
aS'MB.A13R3.B1'
p667
aS'MB.B13R3.B1'
p668
aS'MB.C13R3.B1'
p669
aaa(lp670
S'13R3_CV943'
p671
a(lp672
S'MQ.13R3.B1'
p673
aS'MB.A14R3.B1'
p674
aS'MB.B14R3.B1'
p675
aS'MB.C14R3.B1'
p676
aaa(lp677
S'15R3_CV947'
p678
a(lp679
S'MQ.14R3.B1'
p680
aS'MB.A15R3.B1'
p681
aS'MB.B15R3.B1'
p682
aS'MB.C15R3.B1'
p683
aaa(lp684
S'15R3_CV943'
p685
a(lp686
S'MQ.15R3.B1'
p687
aS'MB.A16R3.B1'
p688
aS'MB.B16R3.B1'
p689
aS'MB.C16R3.B1'
p690
aaa(lp691
S'17R3_CV947'
p692
a(lp693
S'MQ.16R3.B1'
p694
aS'MB.A17R3.B1'
p695
aS'MB.B17R3.B1'
p696
aS'MB.C17R3.B1'
p697
aaa(lp698
S'17R3_CV943'
p699
a(lp700
S'MQ.17R3.B1'
p701
aS'MB.A18R3.B1'
p702
aS'MB.B18R3.B1'
p703
aS'MB.C18R3.B1'
p704
aaa(lp705
S'19R3_CV947'
p706
a(lp707
S'MQ.18R3.B1'
p708
aS'MB.A19R3.B1'
p709
aS'MB.B19R3.B1'
p710
aS'MB.C19R3.B1'
p711
aaa(lp712
S'19R3_CV943'
p713
a(lp714
S'MQ.19R3.B1'
p715
aS'MB.A20R3.B1'
p716
aS'MB.B20R3.B1'
p717
aS'MB.C20R3.B1'
p718
aaa(lp719
S'21R3_CV947'
p720
a(lp721
S'MQ.20R3.B1'
p722
aS'MB.A21R3.B1'
p723
aS'MB.B21R3.B1'
p724
aS'MB.C21R3.B1'
p725
aaa(lp726
S'21R3_CV943'
p727
a(lp728
S'MQ.21R3.B1'
p729
aS'MB.A22R3.B1'
p730
aS'MB.B22R3.B1'
p731
aS'MB.C22R3.B1'
p732
aaa(lp733
S'23R3_CV947'
p734
a(lp735
S'MQ.22R3.B1'
p736
aS'MB.A23R3.B1'
p737
aS'MB.B23R3.B1'
p738
aS'MB.C23R3.B1'
p739
aaa(lp740
S'23R3_CV943'
p741
a(lp742
S'MQ.23R3.B1'
p743
aS'MB.A24R3.B1'
p744
aS'MB.B24R3.B1'
p745
aS'MB.C24R3.B1'
p746
aaa(lp747
S'25R3_CV947'
p748
a(lp749
S'MQ.24R3.B1'
p750
aS'MB.A25R3.B1'
p751
aS'MB.B25R3.B1'
p752
aS'MB.C25R3.B1'
p753
aaa(lp754
S'25R3_CV943'
p755
a(lp756
S'MQ.25R3.B1'
p757
aS'MB.A26R3.B1'
p758
aS'MB.B26R3.B1'
p759
aS'MB.C26R3.B1'
p760
aaa(lp761
S'27R3_CV947'
p762
a(lp763
S'MQ.26R3.B1'
p764
aS'MB.A27R3.B1'
p765
aS'MB.B27R3.B1'
p766
aS'MB.C27R3.B1'
p767
aaa(lp768
S'27R3_CV943'
p769
a(lp770
S'MQ.27R3.B1'
p771
aS'MB.A28R3.B1'
p772
aS'MB.B28R3.B1'
p773
aS'MB.C28R3.B1'
p774
aaa(lp775
S'29R3_CV947'
p776
a(lp777
S'MQ.28R3.B1'
p778
aS'MB.A29R3.B1'
p779
aS'MB.B29R3.B1'
p780
aS'MB.C29R3.B1'
p781
aaa(lp782
S'29R3_CV943'
p783
a(lp784
S'MQ.29R3.B1'
p785
aS'MB.A30R3.B1'
p786
aS'MB.B30R3.B1'
p787
aS'MB.C30R3.B1'
p788
aaa(lp789
S'31R3_CV947'
p790
a(lp791
S'MQ.30R3.B1'
p792
aS'MB.A31R3.B1'
p793
aS'MB.B31R3.B1'
p794
aS'MB.C31R3.B1'
p795
aaa(lp796
S'31R3_CV943'
p797
a(lp798
S'MQ.31R3.B1'
p799
aS'MB.A32R3.B1'
p800
aS'MB.B32R3.B1'
p801
aS'MB.C32R3.B1'
p802
aaa(lp803
S'33R3_CV947'
p804
a(lp805
S'MQ.32R3.B1'
p806
aS'MB.A33R3.B1'
p807
aS'MB.B33R3.B1'
p808
aS'MB.C33R3.B1'
p809
aaa(lp810
S'33R3_CV943'
p811
a(lp812
S'MQ.33R3.B1'
p813
aS'MB.A34R3.B1'
p814
aS'MB.B34R3.B1'
p815
aS'MB.C34R3.B1'
p816
aaa(lp817
S'33L4_CV947'
p818
a(lp819
S'MQ.34R3.B1'
p820
aS'MB.C34L4.B1'
p821
aS'MB.B34L4.B1'
p822
aS'MB.A34L4.B1'
p823
aaa(lp824
S'33L4_CV943'
p825
a(lp826
S'MQ.33L4.B1'
p827
aS'MB.C33L4.B1'
p828
aS'MB.B33L4.B1'
p829
aS'MB.A33L4.B1'
p830
aaa(lp831
S'31L4_CV947'
p832
a(lp833
S'MQ.32L4.B1'
p834
aS'MB.C32L4.B1'
p835
aS'MB.B32L4.B1'
p836
aS'MB.A32L4.B1'
p837
aaa(lp838
S'31L4_CV943'
p839
a(lp840
S'MQ.31L4.B1'
p841
aS'MB.C31L4.B1'
p842
aS'MB.B31L4.B1'
p843
aS'MB.A31L4.B1'
p844
aaa(lp845
S'29L4_CV947'
p846
a(lp847
S'MQ.30L4.B1'
p848
aS'MB.C30L4.B1'
p849
aS'MB.B30L4.B1'
p850
aS'MB.A30L4.B1'
p851
aaa(lp852
S'29L4_CV943'
p853
a(lp854
S'MQ.29L4.B1'
p855
aS'MB.C29L4.B1'
p856
aS'MB.B29L4.B1'
p857
aS'MB.A29L4.B1'
p858
aaa(lp859
S'27L4_CV947'
p860
a(lp861
S'MQ.28L4.B1'
p862
aS'MB.C28L4.B1'
p863
aS'MB.B28L4.B1'
p864
aS'MB.A28L4.B1'
p865
aaa(lp866
S'27L4_CV943'
p867
a(lp868
S'MQ.27L4.B1'
p869
aS'MB.C27L4.B1'
p870
aS'MB.B27L4.B1'
p871
aS'MB.A27L4.B1'
p872
aaa(lp873
S'25L4_CV947'
p874
a(lp875
S'MQ.26L4.B1'
p876
aS'MB.C26L4.B1'
p877
aS'MB.B26L4.B1'
p878
aS'MB.A26L4.B1'
p879
aaa(lp880
S'25L4_CV943'
p881
a(lp882
S'MQ.25L4.B1'
p883
aS'MB.C25L4.B1'
p884
aS'MB.B25L4.B1'
p885
aS'MB.A25L4.B1'
p886
aaa(lp887
S'23L4_CV947'
p888
a(lp889
S'MQ.24L4.B1'
p890
aS'MB.C24L4.B1'
p891
aS'MB.B24L4.B1'
p892
aS'MB.A24L4.B1'
p893
aaa(lp894
S'23L4_CV943'
p895
a(lp896
S'MQ.23L4.B1'
p897
aS'MB.C23L4.B1'
p898
aS'MB.B23L4.B1'
p899
aS'MB.A23L4.B1'
p900
aaa(lp901
S'21L4_CV947'
p902
a(lp903
S'MQ.22L4.B1'
p904
aS'MB.C22L4.B1'
p905
aS'MB.B22L4.B1'
p906
aS'MB.A22L4.B1'
p907
aaa(lp908
S'21L4_CV943'
p909
a(lp910
S'MQ.21L4.B1'
p911
aS'MB.C21L4.B1'
p912
aS'MB.B21L4.B1'
p913
aS'MB.A21L4.B1'
p914
aaa(lp915
S'19L4_CV947'
p916
a(lp917
S'MQ.20L4.B1'
p918
aS'MB.C20L4.B1'
p919
aS'MB.B20L4.B1'
p920
aS'MB.A20L4.B1'
p921
aaa(lp922
S'19L4_CV943'
p923
a(lp924
S'MQ.19L4.B1'
p925
aS'MB.C19L4.B1'
p926
aS'MB.B19L4.B1'
p927
aS'MB.A19L4.B1'
p928
aaa(lp929
S'17L4_CV947'
p930
a(lp931
S'MQ.18L4.B1'
p932
aS'MB.C18L4.B1'
p933
aS'MB.B18L4.B1'
p934
aS'MB.A18L4.B1'
p935
aaa(lp936
S'17L4_CV943'
p937
a(lp938
S'MQ.17L4.B1'
p939
aS'MB.C17L4.B1'
p940
aS'MB.B17L4.B1'
p941
aS'MB.A17L4.B1'
p942
aaa(lp943
S'15L4_CV947'
p944
a(lp945
S'MQ.16L4.B1'
p946
aS'MB.C16L4.B1'
p947
aS'MB.B16L4.B1'
p948
aS'MB.A16L4.B1'
p949
aaa(lp950
S'15L4_CV943'
p951
a(lp952
S'MQ.15L4.B1'
p953
aS'MB.C15L4.B1'
p954
aS'MB.B15L4.B1'
p955
aS'MB.A15L4.B1'
p956
aaa(lp957
S'13L4_CV947'
p958
a(lp959
S'MQ.14L4.B1'
p960
aS'MB.C14L4.B1'
p961
aS'MB.B14L4.B1'
p962
aS'MB.A14L4.B1'
p963
aaa(lp964
S'13L4_CV943'
p965
a(lp966
S'MQ.13L4.B1'
p967
aS'MB.C13L4.B1'
p968
aS'MB.B13L4.B1'
p969
aS'MB.A13L4.B1'
p970
aaa(lp971
S'11L4_CV947'
p972
a(lp973
S'MQ.12L4.B1'
p974
aS'MB.C12L4.B1'
p975
aS'MB.B12L4.B1'
p976
aS'MB.A12L4.B1'
p977
aaatp978
Rp979
sS'S81'
p980
g2
((lp981
(lp982
S'11R8_CV943'
p983
a(lp984
S'MQ.11R8.B1'
p985
aS'MB.A12R8.B1'
p986
aS'MB.B12R8.B1'
p987
aS'MB.C12R8.B1'
p988
aaa(lp989
S'13R8_CV947'
p990
a(lp991
S'MQ.12R8.B1'
p992
aS'MB.A13R8.B1'
p993
aS'MB.B13R8.B1'
p994
aS'MB.C13R8.B1'
p995
aaa(lp996
S'13R8_CV943'
p997
a(lp998
S'MQ.13R8.B1'
p999
aS'MB.A14R8.B1'
p1000
aS'MB.B14R8.B1'
p1001
aS'MB.C14R8.B1'
p1002
aaa(lp1003
S'15R8_CV947'
p1004
a(lp1005
S'MQ.14R8.B1'
p1006
aS'MB.A15R8.B1'
p1007
aS'MB.B15R8.B1'
p1008
aS'MB.C15R8.B1'
p1009
aaa(lp1010
S'15R8_CV943'
p1011
a(lp1012
S'MQ.15R8.B1'
p1013
aS'MB.A16R8.B1'
p1014
aS'MB.B16R8.B1'
p1015
aS'MB.C16R8.B1'
p1016
aaa(lp1017
S'17R8_CV947'
p1018
a(lp1019
S'MQ.16R8.B1'
p1020
aS'MB.A17R8.B1'
p1021
aS'MB.B17R8.B1'
p1022
aS'MB.C17R8.B1'
p1023
aaa(lp1024
S'17R8_CV943'
p1025
a(lp1026
S'MQ.17R8.B1'
p1027
aS'MB.A18R8.B1'
p1028
aS'MB.B18R8.B1'
p1029
aS'MB.C18R8.B1'
p1030
aaa(lp1031
S'19R8_CV947'
p1032
a(lp1033
S'MQ.18R8.B1'
p1034
aS'MB.A19R8.B1'
p1035
aS'MB.B19R8.B1'
p1036
aS'MB.C19R8.B1'
p1037
aaa(lp1038
S'19R8_CV943'
p1039
a(lp1040
S'MQ.19R8.B1'
p1041
aS'MB.A20R8.B1'
p1042
aS'MB.B20R8.B1'
p1043
aS'MB.C20R8.B1'
p1044
aaa(lp1045
S'21R8_CV947'
p1046
a(lp1047
S'MQ.20R8.B1'
p1048
aS'MB.A21R8.B1'
p1049
aS'MB.B21R8.B1'
p1050
aS'MB.C21R8.B1'
p1051
aaa(lp1052
S'21R8_CV943'
p1053
a(lp1054
S'MQ.21R8.B1'
p1055
aS'MB.A22R8.B1'
p1056
aS'MB.B22R8.B1'
p1057
aS'MB.C22R8.B1'
p1058
aaa(lp1059
S'23R8_CV947'
p1060
a(lp1061
S'MQ.22R8.B1'
p1062
aS'MB.A23R8.B1'
p1063
aS'MB.B23R8.B1'
p1064
aS'MB.C23R8.B1'
p1065
aaa(lp1066
S'23R8_CV943'
p1067
a(lp1068
S'MQ.23R8.B1'
p1069
aS'MB.A24R8.B1'
p1070
aS'MB.B24R8.B1'
p1071
aS'MB.C24R8.B1'
p1072
aaa(lp1073
S'25R8_CV947'
p1074
a(lp1075
S'MQ.24R8.B1'
p1076
aS'MB.A25R8.B1'
p1077
aS'MB.B25R8.B1'
p1078
aS'MB.C25R8.B1'
p1079
aaa(lp1080
S'25R8_CV943'
p1081
a(lp1082
S'MQ.25R8.B1'
p1083
aS'MB.A26R8.B1'
p1084
aS'MB.B26R8.B1'
p1085
aS'MB.C26R8.B1'
p1086
aaa(lp1087
S'27R8_CV947'
p1088
a(lp1089
S'MQ.26R8.B1'
p1090
aS'MB.A27R8.B1'
p1091
aS'MB.B27R8.B1'
p1092
aS'MB.C27R8.B1'
p1093
aaa(lp1094
S'27R8_CV943'
p1095
a(lp1096
S'MQ.27R8.B1'
p1097
aS'MB.A28R8.B1'
p1098
aS'MB.B28R8.B1'
p1099
aS'MB.C28R8.B1'
p1100
aaa(lp1101
S'29R8_CV947'
p1102
a(lp1103
S'MQ.28R8.B1'
p1104
aS'MB.A29R8.B1'
p1105
aS'MB.B29R8.B1'
p1106
aS'MB.C29R8.B1'
p1107
aaa(lp1108
S'29R8_CV943'
p1109
a(lp1110
S'MQ.29R8.B1'
p1111
aS'MB.A30R8.B1'
p1112
aS'MB.B30R8.B1'
p1113
aS'MB.C30R8.B1'
p1114
aaa(lp1115
S'31R8_CV947'
p1116
a(lp1117
S'MQ.30R8.B1'
p1118
aS'MB.A31R8.B1'
p1119
aS'MB.B31R8.B1'
p1120
aS'MB.C31R8.B1'
p1121
aaa(lp1122
S'31R8_CV943'
p1123
a(lp1124
S'MQ.31R8.B1'
p1125
aS'MB.A32R8.B1'
p1126
aS'MB.B32R8.B1'
p1127
aS'MB.C32R8.B1'
p1128
aaa(lp1129
S'33R8_CV947'
p1130
a(lp1131
S'MQ.32R8.B1'
p1132
aS'MB.A33R8.B1'
p1133
aS'MB.B33R8.B1'
p1134
aS'MB.C33R8.B1'
p1135
aaa(lp1136
S'33R8_CV943'
p1137
a(lp1138
S'MQ.33R8.B1'
p1139
aS'MB.A34R8.B1'
p1140
aS'MB.B34R8.B1'
p1141
aS'MB.C34R8.B1'
p1142
aaa(lp1143
S'33L1_CV947'
p1144
a(lp1145
S'MQ.34R8.B1'
p1146
aS'MB.C34L1.B1'
p1147
aS'MB.B34L1.B1'
p1148
aS'MB.A34L1.B1'
p1149
aaa(lp1150
S'33L1_CV943'
p1151
a(lp1152
S'MQ.33L1.B1'
p1153
aS'MB.C33L1.B1'
p1154
aS'MB.B33L1.B1'
p1155
aS'MB.A33L1.B1'
p1156
aaa(lp1157
S'31L1_CV947'
p1158
a(lp1159
S'MQ.32L1.B1'
p1160
aS'MB.C32L1.B1'
p1161
aS'MB.B32L1.B1'
p1162
aS'MB.A32L1.B1'
p1163
aaa(lp1164
S'31L1_CV943'
p1165
a(lp1166
S'MQ.31L1.B1'
p1167
aS'MB.C31L1.B1'
p1168
aS'MB.B31L1.B1'
p1169
aS'MB.A31L1.B1'
p1170
aaa(lp1171
S'29L1_CV947'
p1172
a(lp1173
S'MQ.30L1.B1'
p1174
aS'MB.C30L1.B1'
p1175
aS'MB.B30L1.B1'
p1176
aS'MB.A30L1.B1'
p1177
aaa(lp1178
S'29L1_CV943'
p1179
a(lp1180
S'MQ.29L1.B1'
p1181
aS'MB.C29L1.B1'
p1182
aS'MB.B29L1.B1'
p1183
aS'MB.A29L1.B1'
p1184
aaa(lp1185
S'27L1_CV947'
p1186
a(lp1187
S'MQ.28L1.B1'
p1188
aS'MB.C28L1.B1'
p1189
aS'MB.B28L1.B1'
p1190
aS'MB.A28L1.B1'
p1191
aaa(lp1192
S'27L1_CV943'
p1193
a(lp1194
S'MQ.27L1.B1'
p1195
aS'MB.C27L1.B1'
p1196
aS'MB.B27L1.B1'
p1197
aS'MB.A27L1.B1'
p1198
aaa(lp1199
S'25L1_CV947'
p1200
a(lp1201
S'MQ.26L1.B1'
p1202
aS'MB.C26L1.B1'
p1203
aS'MB.B26L1.B1'
p1204
aS'MB.A26L1.B1'
p1205
aaa(lp1206
S'25L1_CV943'
p1207
a(lp1208
S'MQ.25L1.B1'
p1209
aS'MB.C25L1.B1'
p1210
aS'MB.B25L1.B1'
p1211
aS'MB.A25L1.B1'
p1212
aaa(lp1213
S'23L1_CV947'
p1214
a(lp1215
S'MQ.24L1.B1'
p1216
aS'MB.C24L1.B1'
p1217
aS'MB.B24L1.B1'
p1218
aS'MB.A24L1.B1'
p1219
aaa(lp1220
S'23L1_CV943'
p1221
a(lp1222
S'MQ.23L1.B1'
p1223
aS'MB.C23L1.B1'
p1224
aS'MB.B23L1.B1'
p1225
aS'MB.A23L1.B1'
p1226
aaa(lp1227
S'21L1_CV947'
p1228
a(lp1229
S'MQ.22L1.B1'
p1230
aS'MB.C22L1.B1'
p1231
aS'MB.B22L1.B1'
p1232
aS'MB.A22L1.B1'
p1233
aaa(lp1234
S'21L1_CV943'
p1235
a(lp1236
S'MQ.21L1.B1'
p1237
aS'MB.C21L1.B1'
p1238
aS'MB.B21L1.B1'
p1239
aS'MB.A21L1.B1'
p1240
aaa(lp1241
S'19L1_CV947'
p1242
a(lp1243
S'MQ.20L1.B1'
p1244
aS'MB.C20L1.B1'
p1245
aS'MB.B20L1.B1'
p1246
aS'MB.A20L1.B1'
p1247
aaa(lp1248
S'19L1_CV943'
p1249
a(lp1250
S'MQ.19L1.B1'
p1251
aS'MB.C19L1.B1'
p1252
aS'MB.B19L1.B1'
p1253
aS'MB.A19L1.B1'
p1254
aaa(lp1255
S'17L1_CV947'
p1256
a(lp1257
S'MQ.18L1.B1'
p1258
aS'MB.C18L1.B1'
p1259
aS'MB.B18L1.B1'
p1260
aS'MB.A18L1.B1'
p1261
aaa(lp1262
S'17L1_CV943'
p1263
a(lp1264
S'MQ.17L1.B1'
p1265
aS'MB.C17L1.B1'
p1266
aS'MB.B17L1.B1'
p1267
aS'MB.A17L1.B1'
p1268
aaa(lp1269
S'15L1_CV947'
p1270
a(lp1271
S'MQ.16L1.B1'
p1272
aS'MB.C16L1.B1'
p1273
aS'MB.B16L1.B1'
p1274
aS'MB.A16L1.B1'
p1275
aaa(lp1276
S'15L1_CV943'
p1277
a(lp1278
S'MQ.15L1.B1'
p1279
aS'MB.C15L1.B1'
p1280
aS'MB.B15L1.B1'
p1281
aS'MB.A15L1.B1'
p1282
aaa(lp1283
S'13L1_CV947'
p1284
a(lp1285
S'MQ.14L1.B1'
p1286
aS'MB.C14L1.B1'
p1287
aS'MB.B14L1.B1'
p1288
aS'MB.A14L1.B1'
p1289
aaa(lp1290
S'13L1_CV943'
p1291
a(lp1292
S'MQ.13L1.B1'
p1293
aS'MB.C13L1.B1'
p1294
aS'MB.B13L1.B1'
p1295
aS'MB.A13L1.B1'
p1296
aaa(lp1297
S'11L1_CV947'
p1298
a(lp1299
S'MQ.12L1.B1'
p1300
aS'MB.C12L1.B1'
p1301
aS'MB.B12L1.B1'
p1302
aS'MB.A12L1.B1'
p1303
aaatp1304
Rp1305
sS'S56'
p1306
g2
((lp1307
(lp1308
S'11R5_CV943'
p1309
a(lp1310
S'MQ.11R5.B1'
p1311
aS'MB.A12R5.B1'
p1312
aS'MB.B12R5.B1'
p1313
aS'MB.C12R5.B1'
p1314
aaa(lp1315
S'13R5_CV947'
p1316
a(lp1317
S'MQ.12R5.B1'
p1318
aS'MB.A13R5.B1'
p1319
aS'MB.B13R5.B1'
p1320
aS'MB.C13R5.B1'
p1321
aaa(lp1322
S'13R5_CV943'
p1323
a(lp1324
S'MQ.13R5.B1'
p1325
aS'MB.A14R5.B1'
p1326
aS'MB.B14R5.B1'
p1327
aS'MB.C14R5.B1'
p1328
aaa(lp1329
S'15R5_CV947'
p1330
a(lp1331
S'MQ.14R5.B1'
p1332
aS'MB.A15R5.B1'
p1333
aS'MB.B15R5.B1'
p1334
aS'MB.C15R5.B1'
p1335
aaa(lp1336
S'15R5_CV943'
p1337
a(lp1338
S'MQ.15R5.B1'
p1339
aS'MB.A16R5.B1'
p1340
aS'MB.B16R5.B1'
p1341
aS'MB.C16R5.B1'
p1342
aaa(lp1343
S'17R5_CV947'
p1344
a(lp1345
S'MQ.16R5.B1'
p1346
aS'MB.A17R5.B1'
p1347
aS'MB.B17R5.B1'
p1348
aS'MB.C17R5.B1'
p1349
aaa(lp1350
S'17R5_CV943'
p1351
a(lp1352
S'MQ.17R5.B1'
p1353
aS'MB.A18R5.B1'
p1354
aS'MB.B18R5.B1'
p1355
aS'MB.C18R5.B1'
p1356
aaa(lp1357
S'19R5_CV947'
p1358
a(lp1359
S'MQ.18R5.B1'
p1360
aS'MB.A19R5.B1'
p1361
aS'MB.B19R5.B1'
p1362
aS'MB.C19R5.B1'
p1363
aaa(lp1364
S'19R5_CV943'
p1365
a(lp1366
S'MQ.19R5.B1'
p1367
aS'MB.A20R5.B1'
p1368
aS'MB.B20R5.B1'
p1369
aS'MB.C20R5.B1'
p1370
aaa(lp1371
S'21R5_CV947'
p1372
a(lp1373
S'MQ.20R5.B1'
p1374
aS'MB.A21R5.B1'
p1375
aS'MB.B21R5.B1'
p1376
aS'MB.C21R5.B1'
p1377
aaa(lp1378
S'21R5_CV943'
p1379
a(lp1380
S'MQ.21R5.B1'
p1381
aS'MB.A22R5.B1'
p1382
aS'MB.B22R5.B1'
p1383
aS'MB.C22R5.B1'
p1384
aaa(lp1385
S'23R5_CV947'
p1386
a(lp1387
S'MQ.22R5.B1'
p1388
aS'MB.A23R5.B1'
p1389
aS'MB.B23R5.B1'
p1390
aS'MB.C23R5.B1'
p1391
aaa(lp1392
S'23R5_CV943'
p1393
a(lp1394
S'MQ.23R5.B1'
p1395
aS'MB.A24R5.B1'
p1396
aS'MB.B24R5.B1'
p1397
aS'MB.C24R5.B1'
p1398
aaa(lp1399
S'25R5_CV947'
p1400
a(lp1401
S'MQ.24R5.B1'
p1402
aS'MB.A25R5.B1'
p1403
aS'MB.B25R5.B1'
p1404
aS'MB.C25R5.B1'
p1405
aaa(lp1406
S'25R5_CV943'
p1407
a(lp1408
S'MQ.25R5.B1'
p1409
aS'MB.A26R5.B1'
p1410
aS'MB.B26R5.B1'
p1411
aS'MB.C26R5.B1'
p1412
aaa(lp1413
S'27R5_CV947'
p1414
a(lp1415
S'MQ.26R5.B1'
p1416
aS'MB.A27R5.B1'
p1417
aS'MB.B27R5.B1'
p1418
aS'MB.C27R5.B1'
p1419
aaa(lp1420
S'27R5_CV943'
p1421
a(lp1422
S'MQ.27R5.B1'
p1423
aS'MB.A28R5.B1'
p1424
aS'MB.B28R5.B1'
p1425
aS'MB.C28R5.B1'
p1426
aaa(lp1427
S'29R5_CV947'
p1428
a(lp1429
S'MQ.28R5.B1'
p1430
aS'MB.A29R5.B1'
p1431
aS'MB.B29R5.B1'
p1432
aS'MB.C29R5.B1'
p1433
aaa(lp1434
S'29R5_CV943'
p1435
a(lp1436
S'MQ.29R5.B1'
p1437
aS'MB.A30R5.B1'
p1438
aS'MB.B30R5.B1'
p1439
aS'MB.C30R5.B1'
p1440
aaa(lp1441
S'31R5_CV947'
p1442
a(lp1443
S'MQ.30R5.B1'
p1444
aS'MB.A31R5.B1'
p1445
aS'MB.B31R5.B1'
p1446
aS'MB.C31R5.B1'
p1447
aaa(lp1448
S'31R5_CV943'
p1449
a(lp1450
S'MQ.31R5.B1'
p1451
aS'MB.A32R5.B1'
p1452
aS'MB.B32R5.B1'
p1453
aS'MB.C32R5.B1'
p1454
aaa(lp1455
S'33R5_CV947'
p1456
a(lp1457
S'MQ.32R5.B1'
p1458
aS'MB.A33R5.B1'
p1459
aS'MB.B33R5.B1'
p1460
aS'MB.C33R5.B1'
p1461
aaa(lp1462
S'33R5_CV943'
p1463
a(lp1464
S'MQ.33R5.B1'
p1465
aS'MB.A34R5.B1'
p1466
aS'MB.B34R5.B1'
p1467
aS'MB.C34R5.B1'
p1468
aaa(lp1469
S'33L6_CV947'
p1470
a(lp1471
S'MQ.34R5.B1'
p1472
aS'MB.C34L6.B1'
p1473
aS'MB.B34L6.B1'
p1474
aS'MB.A34L6.B1'
p1475
aaa(lp1476
S'33L6_CV943'
p1477
a(lp1478
S'MQ.33L6.B1'
p1479
aS'MB.C33L6.B1'
p1480
aS'MB.B33L6.B1'
p1481
aS'MB.A33L6.B1'
p1482
aaa(lp1483
S'31L6_CV947'
p1484
a(lp1485
S'MQ.32L6.B1'
p1486
aS'MB.C32L6.B1'
p1487
aS'MB.B32L6.B1'
p1488
aS'MB.A32L6.B1'
p1489
aaa(lp1490
S'31L6_CV943'
p1491
a(lp1492
S'MQ.31L6.B1'
p1493
aS'MB.C31L6.B1'
p1494
aS'MB.B31L6.B1'
p1495
aS'MB.A31L6.B1'
p1496
aaa(lp1497
S'29L6_CV947'
p1498
a(lp1499
S'MQ.30L6.B1'
p1500
aS'MB.C30L6.B1'
p1501
aS'MB.B30L6.B1'
p1502
aS'MB.A30L6.B1'
p1503
aaa(lp1504
S'29L6_CV943'
p1505
a(lp1506
S'MQ.29L6.B1'
p1507
aS'MB.C29L6.B1'
p1508
aS'MB.B29L6.B1'
p1509
aS'MB.A29L6.B1'
p1510
aaa(lp1511
S'27L6_CV947'
p1512
a(lp1513
S'MQ.28L6.B1'
p1514
aS'MB.C28L6.B1'
p1515
aS'MB.B28L6.B1'
p1516
aS'MB.A28L6.B1'
p1517
aaa(lp1518
S'27L6_CV943'
p1519
a(lp1520
S'MQ.27L6.B1'
p1521
aS'MB.C27L6.B1'
p1522
aS'MB.B27L6.B1'
p1523
aS'MB.A27L6.B1'
p1524
aaa(lp1525
S'25L6_CV947'
p1526
a(lp1527
S'MQ.26L6.B1'
p1528
aS'MB.C26L6.B1'
p1529
aS'MB.B26L6.B1'
p1530
aS'MB.A26L6.B1'
p1531
aaa(lp1532
S'25L6_CV943'
p1533
a(lp1534
S'MQ.25L6.B1'
p1535
aS'MB.C25L6.B1'
p1536
aS'MB.B25L6.B1'
p1537
aS'MB.A25L6.B1'
p1538
aaa(lp1539
S'23L6_CV947'
p1540
a(lp1541
S'MQ.24L6.B1'
p1542
aS'MB.C24L6.B1'
p1543
aS'MB.B24L6.B1'
p1544
aS'MB.A24L6.B1'
p1545
aaa(lp1546
S'23L6_CV943'
p1547
a(lp1548
S'MQ.23L6.B1'
p1549
aS'MB.C23L6.B1'
p1550
aS'MB.B23L6.B1'
p1551
aS'MB.A23L6.B1'
p1552
aaa(lp1553
S'21L6_CV947'
p1554
a(lp1555
S'MQ.22L6.B1'
p1556
aS'MB.C22L6.B1'
p1557
aS'MB.B22L6.B1'
p1558
aS'MB.A22L6.B1'
p1559
aaa(lp1560
S'21L6_CV943'
p1561
a(lp1562
S'MQ.21L6.B1'
p1563
aS'MB.C21L6.B1'
p1564
aS'MB.B21L6.B1'
p1565
aS'MB.A21L6.B1'
p1566
aaa(lp1567
S'19L6_CV947'
p1568
a(lp1569
S'MQ.20L6.B1'
p1570
aS'MB.C20L6.B1'
p1571
aS'MB.B20L6.B1'
p1572
aS'MB.A20L6.B1'
p1573
aaa(lp1574
S'19L6_CV943'
p1575
a(lp1576
S'MQ.19L6.B1'
p1577
aS'MB.C19L6.B1'
p1578
aS'MB.B19L6.B1'
p1579
aS'MB.A19L6.B1'
p1580
aaa(lp1581
S'17L6_CV947'
p1582
a(lp1583
S'MQ.18L6.B1'
p1584
aS'MB.C18L6.B1'
p1585
aS'MB.B18L6.B1'
p1586
aS'MB.A18L6.B1'
p1587
aaa(lp1588
S'17L6_CV943'
p1589
a(lp1590
S'MQ.17L6.B1'
p1591
aS'MB.C17L6.B1'
p1592
aS'MB.B17L6.B1'
p1593
aS'MB.A17L6.B1'
p1594
aaa(lp1595
S'15L6_CV947'
p1596
a(lp1597
S'MQ.16L6.B1'
p1598
aS'MB.C16L6.B1'
p1599
aS'MB.B16L6.B1'
p1600
aS'MB.A16L6.B1'
p1601
aaa(lp1602
S'15L6_CV943'
p1603
a(lp1604
S'MQ.15L6.B1'
p1605
aS'MB.C15L6.B1'
p1606
aS'MB.B15L6.B1'
p1607
aS'MB.A15L6.B1'
p1608
aaa(lp1609
S'13L6_CV947'
p1610
a(lp1611
S'MQ.14L6.B1'
p1612
aS'MB.C14L6.B1'
p1613
aS'MB.B14L6.B1'
p1614
aS'MB.A14L6.B1'
p1615
aaa(lp1616
S'13L6_CV943'
p1617
a(lp1618
S'MQ.13L6.B1'
p1619
aS'MB.C13L6.B1'
p1620
aS'MB.B13L6.B1'
p1621
aS'MB.A13L6.B1'
p1622
aaa(lp1623
S'11L6_CV947'
p1624
a(lp1625
S'MQ.12L6.B1'
p1626
aS'MB.C12L6.B1'
p1627
aS'MB.B12L6.B1'
p1628
aS'MB.A12L6.B1'
p1629
aaatp1630
Rp1631
sS'S12'
p1632
g2
((lp1633
(lp1634
S'11R1_CV943'
p1635
a(lp1636
S'MQ.11R1.B1'
p1637
aS'MB.A12R1.B1'
p1638
aS'MB.B12R1.B1'
p1639
aS'MB.C12R1.B1'
p1640
aaa(lp1641
S'13R1_CV947'
p1642
a(lp1643
S'MQ.12R1.B1'
p1644
aS'MB.A13R1.B1'
p1645
aS'MB.B13R1.B1'
p1646
aS'MB.C13R1.B1'
p1647
aaa(lp1648
S'13R1_CV943'
p1649
a(lp1650
S'MQ.13R1.B1'
p1651
aS'MB.A14R1.B1'
p1652
aS'MB.B14R1.B1'
p1653
aS'MB.C14R1.B1'
p1654
aaa(lp1655
S'15R1_CV947'
p1656
a(lp1657
S'MQ.14R1.B1'
p1658
aS'MB.A15R1.B1'
p1659
aS'MB.B15R1.B1'
p1660
aS'MB.C15R1.B1'
p1661
aaa(lp1662
S'15R1_CV943'
p1663
a(lp1664
S'MQ.15R1.B1'
p1665
aS'MB.A16R1.B1'
p1666
aS'MB.B16R1.B1'
p1667
aS'MB.C16R1.B1'
p1668
aaa(lp1669
S'17R1_CV947'
p1670
a(lp1671
S'MQ.16R1.B1'
p1672
aS'MB.A17R1.B1'
p1673
aS'MB.B17R1.B1'
p1674
aS'MB.C17R1.B1'
p1675
aaa(lp1676
S'17R1_CV943'
p1677
a(lp1678
S'MQ.17R1.B1'
p1679
aS'MB.A18R1.B1'
p1680
aS'MB.B18R1.B1'
p1681
aS'MB.C18R1.B1'
p1682
aaa(lp1683
S'19R1_CV947'
p1684
a(lp1685
S'MQ.18R1.B1'
p1686
aS'MB.A19R1.B1'
p1687
aS'MB.B19R1.B1'
p1688
aS'MB.C19R1.B1'
p1689
aaa(lp1690
S'19R1_CV943'
p1691
a(lp1692
S'MQ.19R1.B1'
p1693
aS'MB.A20R1.B1'
p1694
aS'MB.B20R1.B1'
p1695
aS'MB.C20R1.B1'
p1696
aaa(lp1697
S'21R1_CV947'
p1698
a(lp1699
S'MQ.20R1.B1'
p1700
aS'MB.A21R1.B1'
p1701
aS'MB.B21R1.B1'
p1702
aS'MB.C21R1.B1'
p1703
aaa(lp1704
S'21R1_CV943'
p1705
a(lp1706
S'MQ.21R1.B1'
p1707
aS'MB.A22R1.B1'
p1708
aS'MB.B22R1.B1'
p1709
aS'MB.C22R1.B1'
p1710
aaa(lp1711
S'23R1_CV947'
p1712
a(lp1713
S'MQ.22R1.B1'
p1714
aS'MB.A23R1.B1'
p1715
aS'MB.B23R1.B1'
p1716
aS'MB.C23R1.B1'
p1717
aaa(lp1718
S'23R1_CV943'
p1719
a(lp1720
S'MQ.23R1.B1'
p1721
aS'MB.A24R1.B1'
p1722
aS'MB.B24R1.B1'
p1723
aS'MB.C24R1.B1'
p1724
aaa(lp1725
S'25R1_CV947'
p1726
a(lp1727
S'MQ.24R1.B1'
p1728
aS'MB.A25R1.B1'
p1729
aS'MB.B25R1.B1'
p1730
aS'MB.C25R1.B1'
p1731
aaa(lp1732
S'25R1_CV943'
p1733
a(lp1734
S'MQ.25R1.B1'
p1735
aS'MB.A26R1.B1'
p1736
aS'MB.B26R1.B1'
p1737
aS'MB.C26R1.B1'
p1738
aaa(lp1739
S'27R1_CV947'
p1740
a(lp1741
S'MQ.26R1.B1'
p1742
aS'MB.A27R1.B1'
p1743
aS'MB.B27R1.B1'
p1744
aS'MB.C27R1.B1'
p1745
aaa(lp1746
S'27R1_CV943'
p1747
a(lp1748
S'MQ.27R1.B1'
p1749
aS'MB.A28R1.B1'
p1750
aS'MB.B28R1.B1'
p1751
aS'MB.C28R1.B1'
p1752
aaa(lp1753
S'29R1_CV947'
p1754
a(lp1755
S'MQ.28R1.B1'
p1756
aS'MB.A29R1.B1'
p1757
aS'MB.B29R1.B1'
p1758
aS'MB.C29R1.B1'
p1759
aaa(lp1760
S'29R1_CV943'
p1761
a(lp1762
S'MQ.29R1.B1'
p1763
aS'MB.A30R1.B1'
p1764
aS'MB.B30R1.B1'
p1765
aS'MB.C30R1.B1'
p1766
aaa(lp1767
S'31R1_CV947'
p1768
a(lp1769
S'MQ.30R1.B1'
p1770
aS'MB.A31R1.B1'
p1771
aS'MB.B31R1.B1'
p1772
aS'MB.C31R1.B1'
p1773
aaa(lp1774
S'31R1_CV943'
p1775
a(lp1776
S'MQ.31R1.B1'
p1777
aS'MB.A32R1.B1'
p1778
aS'MB.B32R1.B1'
p1779
aS'MB.C32R1.B1'
p1780
aaa(lp1781
S'33R1_CV947'
p1782
a(lp1783
S'MQ.32R1.B1'
p1784
aS'MB.A33R1.B1'
p1785
aS'MB.B33R1.B1'
p1786
aS'MB.C33R1.B1'
p1787
aaa(lp1788
S'33R1_CV943'
p1789
a(lp1790
S'MQ.33R1.B1'
p1791
aS'MB.A34R1.B1'
p1792
aS'MB.B34R1.B1'
p1793
aS'MB.C34R1.B1'
p1794
aaa(lp1795
S'33L2_CV947'
p1796
a(lp1797
S'MQ.34R1.B1'
p1798
aS'MB.C34L2.B1'
p1799
aS'MB.B34L2.B1'
p1800
aS'MB.A34L2.B1'
p1801
aaa(lp1802
S'33L2_CV943'
p1803
a(lp1804
S'MQ.33L2.B1'
p1805
aS'MB.C33L2.B1'
p1806
aS'MB.B33L2.B1'
p1807
aS'MB.A33L2.B1'
p1808
aaa(lp1809
S'31L2_CV947'
p1810
a(lp1811
S'MQ.32L2.B1'
p1812
aS'MB.C32L2.B1'
p1813
aS'MB.B32L2.B1'
p1814
aS'MB.A32L2.B1'
p1815
aaa(lp1816
S'31L2_CV943'
p1817
a(lp1818
S'MQ.31L2.B1'
p1819
aS'MB.C31L2.B1'
p1820
aS'MB.B31L2.B1'
p1821
aS'MB.A31L2.B1'
p1822
aaa(lp1823
S'29L2_CV947'
p1824
a(lp1825
S'MQ.30L2.B1'
p1826
aS'MB.C30L2.B1'
p1827
aS'MB.B30L2.B1'
p1828
aS'MB.A30L2.B1'
p1829
aaa(lp1830
S'29L2_CV943'
p1831
a(lp1832
S'MQ.29L2.B1'
p1833
aS'MB.C29L2.B1'
p1834
aS'MB.B29L2.B1'
p1835
aS'MB.A29L2.B1'
p1836
aaa(lp1837
S'27L2_CV947'
p1838
a(lp1839
S'MQ.28L2.B1'
p1840
aS'MB.C28L2.B1'
p1841
aS'MB.B28L2.B1'
p1842
aS'MB.A28L2.B1'
p1843
aaa(lp1844
S'27L2_CV943'
p1845
a(lp1846
S'MQ.27L2.B1'
p1847
aS'MB.C27L2.B1'
p1848
aS'MB.B27L2.B1'
p1849
aS'MB.A27L2.B1'
p1850
aaa(lp1851
S'25L2_CV947'
p1852
a(lp1853
S'MQ.26L2.B1'
p1854
aS'MB.C26L2.B1'
p1855
aS'MB.B26L2.B1'
p1856
aS'MB.A26L2.B1'
p1857
aaa(lp1858
S'25L2_CV943'
p1859
a(lp1860
S'MQ.25L2.B1'
p1861
aS'MB.C25L2.B1'
p1862
aS'MB.B25L2.B1'
p1863
aS'MB.A25L2.B1'
p1864
aaa(lp1865
S'23L2_CV947'
p1866
a(lp1867
S'MQ.24L2.B1'
p1868
aS'MB.C24L2.B1'
p1869
aS'MB.B24L2.B1'
p1870
aS'MB.A24L2.B1'
p1871
aaa(lp1872
S'23L2_CV943'
p1873
a(lp1874
S'MQ.23L2.B1'
p1875
aS'MB.C23L2.B1'
p1876
aS'MB.B23L2.B1'
p1877
aS'MB.A23L2.B1'
p1878
aaa(lp1879
S'21L2_CV947'
p1880
a(lp1881
S'MQ.22L2.B1'
p1882
aS'MB.C22L2.B1'
p1883
aS'MB.B22L2.B1'
p1884
aS'MB.A22L2.B1'
p1885
aaa(lp1886
S'21L2_CV943'
p1887
a(lp1888
S'MQ.21L2.B1'
p1889
aS'MB.C21L2.B1'
p1890
aS'MB.B21L2.B1'
p1891
aS'MB.A21L2.B1'
p1892
aaa(lp1893
S'19L2_CV947'
p1894
a(lp1895
S'MQ.20L2.B1'
p1896
aS'MB.C20L2.B1'
p1897
aS'MB.B20L2.B1'
p1898
aS'MB.A20L2.B1'
p1899
aaa(lp1900
S'19L2_CV943'
p1901
a(lp1902
S'MQ.19L2.B1'
p1903
aS'MB.C19L2.B1'
p1904
aS'MB.B19L2.B1'
p1905
aS'MB.A19L2.B1'
p1906
aaa(lp1907
S'17L2_CV947'
p1908
a(lp1909
S'MQ.18L2.B1'
p1910
aS'MB.C18L2.B1'
p1911
aS'MB.B18L2.B1'
p1912
aS'MB.A18L2.B1'
p1913
aaa(lp1914
S'17L2_CV943'
p1915
a(lp1916
S'MQ.17L2.B1'
p1917
aS'MB.C17L2.B1'
p1918
aS'MB.B17L2.B1'
p1919
aS'MB.A17L2.B1'
p1920
aaa(lp1921
S'15L2_CV947'
p1922
a(lp1923
S'MQ.16L2.B1'
p1924
aS'MB.C16L2.B1'
p1925
aS'MB.B16L2.B1'
p1926
aS'MB.A16L2.B1'
p1927
aaa(lp1928
S'15L2_CV943'
p1929
a(lp1930
S'MQ.15L2.B1'
p1931
aS'MB.C15L2.B1'
p1932
aS'MB.B15L2.B1'
p1933
aS'MB.A15L2.B1'
p1934
aaa(lp1935
S'13L2_CV947'
p1936
a(lp1937
S'MQ.14L2.B1'
p1938
aS'MB.C14L2.B1'
p1939
aS'MB.B14L2.B1'
p1940
aS'MB.A14L2.B1'
p1941
aaa(lp1942
S'13L2_CV943'
p1943
a(lp1944
S'MQ.13L2.B1'
p1945
aS'MB.C13L2.B1'
p1946
aS'MB.B13L2.B1'
p1947
aS'MB.A13L2.B1'
p1948
aaa(lp1949
S'11L2_CV947'
p1950
a(lp1951
S'MQ.12L2.B1'
p1952
aS'MB.C12L2.B1'
p1953
aS'MB.B12L2.B1'
p1954
aS'MB.A12L2.B1'
p1955
aaatp1956
Rp1957
sS'S78'
p1958
g2
((lp1959
(lp1960
S'11R7_CV943'
p1961
a(lp1962
S'MQ.11R7.B1'
p1963
aS'MB.A12R7.B1'
p1964
aS'MB.B12R7.B1'
p1965
aS'MB.C12R7.B1'
p1966
aaa(lp1967
S'13R7_CV947'
p1968
a(lp1969
S'MQ.12R7.B1'
p1970
aS'MB.A13R7.B1'
p1971
aS'MB.B13R7.B1'
p1972
aS'MB.C13R7.B1'
p1973
aaa(lp1974
S'13R7_CV943'
p1975
a(lp1976
S'MQ.13R7.B1'
p1977
aS'MB.A14R7.B1'
p1978
aS'MB.B14R7.B1'
p1979
aS'MB.C14R7.B1'
p1980
aaa(lp1981
S'15R7_CV947'
p1982
a(lp1983
S'MQ.14R7.B1'
p1984
aS'MB.A15R7.B1'
p1985
aS'MB.B15R7.B1'
p1986
aS'MB.C15R7.B1'
p1987
aaa(lp1988
S'15R7_CV943'
p1989
a(lp1990
S'MQ.15R7.B1'
p1991
aS'MB.A16R7.B1'
p1992
aS'MB.B16R7.B1'
p1993
aS'MB.C16R7.B1'
p1994
aaa(lp1995
S'17R7_CV947'
p1996
a(lp1997
S'MQ.16R7.B1'
p1998
aS'MB.A17R7.B1'
p1999
aS'MB.B17R7.B1'
p2000
aS'MB.C17R7.B1'
p2001
aaa(lp2002
S'17R7_CV943'
p2003
a(lp2004
S'MQ.17R7.B1'
p2005
aS'MB.A18R7.B1'
p2006
aS'MB.B18R7.B1'
p2007
aS'MB.C18R7.B1'
p2008
aaa(lp2009
S'19R7_CV947'
p2010
a(lp2011
S'MQ.18R7.B1'
p2012
aS'MB.A19R7.B1'
p2013
aS'MB.B19R7.B1'
p2014
aS'MB.C19R7.B1'
p2015
aaa(lp2016
S'19R7_CV943'
p2017
a(lp2018
S'MQ.19R7.B1'
p2019
aS'MB.A20R7.B1'
p2020
aS'MB.B20R7.B1'
p2021
aS'MB.C20R7.B1'
p2022
aaa(lp2023
S'21R7_CV947'
p2024
a(lp2025
S'MQ.20R7.B1'
p2026
aS'MB.A21R7.B1'
p2027
aS'MB.B21R7.B1'
p2028
aS'MB.C21R7.B1'
p2029
aaa(lp2030
S'21R7_CV943'
p2031
a(lp2032
S'MQ.21R7.B1'
p2033
aS'MB.A22R7.B1'
p2034
aS'MB.B22R7.B1'
p2035
aS'MB.C22R7.B1'
p2036
aaa(lp2037
S'23R7_CV947'
p2038
a(lp2039
S'MQ.22R7.B1'
p2040
aS'MB.A23R7.B1'
p2041
aS'MB.B23R7.B1'
p2042
aS'MB.C23R7.B1'
p2043
aaa(lp2044
S'23R7_CV943'
p2045
a(lp2046
S'MQ.23R7.B1'
p2047
aS'MB.A24R7.B1'
p2048
aS'MB.B24R7.B1'
p2049
aS'MB.C24R7.B1'
p2050
aaa(lp2051
S'25R7_CV947'
p2052
a(lp2053
S'MQ.24R7.B1'
p2054
aS'MB.A25R7.B1'
p2055
aS'MB.B25R7.B1'
p2056
aS'MB.C25R7.B1'
p2057
aaa(lp2058
S'25R7_CV943'
p2059
a(lp2060
S'MQ.25R7.B1'
p2061
aS'MB.A26R7.B1'
p2062
aS'MB.B26R7.B1'
p2063
aS'MB.C26R7.B1'
p2064
aaa(lp2065
S'27R7_CV947'
p2066
a(lp2067
S'MQ.26R7.B1'
p2068
aS'MB.A27R7.B1'
p2069
aS'MB.B27R7.B1'
p2070
aS'MB.C27R7.B1'
p2071
aaa(lp2072
S'27R7_CV943'
p2073
a(lp2074
S'MQ.27R7.B1'
p2075
aS'MB.A28R7.B1'
p2076
aS'MB.B28R7.B1'
p2077
aS'MB.C28R7.B1'
p2078
aaa(lp2079
S'29R7_CV947'
p2080
a(lp2081
S'MQ.28R7.B1'
p2082
aS'MB.A29R7.B1'
p2083
aS'MB.B29R7.B1'
p2084
aS'MB.C29R7.B1'
p2085
aaa(lp2086
S'29R7_CV943'
p2087
a(lp2088
S'MQ.29R7.B1'
p2089
aS'MB.A30R7.B1'
p2090
aS'MB.B30R7.B1'
p2091
aS'MB.C30R7.B1'
p2092
aaa(lp2093
S'31R7_CV947'
p2094
a(lp2095
S'MQ.30R7.B1'
p2096
aS'MB.A31R7.B1'
p2097
aS'MB.B31R7.B1'
p2098
aS'MB.C31R7.B1'
p2099
aaa(lp2100
S'31R7_CV943'
p2101
a(lp2102
S'MQ.31R7.B1'
p2103
aS'MB.A32R7.B1'
p2104
aS'MB.B32R7.B1'
p2105
aS'MB.C32R7.B1'
p2106
aaa(lp2107
S'33R7_CV947'
p2108
a(lp2109
S'MQ.32R7.B1'
p2110
aS'MB.A33R7.B1'
p2111
aS'MB.B33R7.B1'
p2112
aS'MB.C33R7.B1'
p2113
aaa(lp2114
S'33R7_CV943'
p2115
a(lp2116
S'MQ.33R7.B1'
p2117
aS'MB.A34R7.B1'
p2118
aS'MB.B34R7.B1'
p2119
aS'MB.C34R7.B1'
p2120
aaa(lp2121
S'33L8_CV947'
p2122
a(lp2123
S'MQ.34R7.B1'
p2124
aS'MB.C34L8.B1'
p2125
aS'MB.B34L8.B1'
p2126
aS'MB.A34L8.B1'
p2127
aaa(lp2128
S'33L8_CV943'
p2129
a(lp2130
S'MQ.33L8.B1'
p2131
aS'MB.C33L8.B1'
p2132
aS'MB.B33L8.B1'
p2133
aS'MB.A33L8.B1'
p2134
aaa(lp2135
S'31L8_CV947'
p2136
a(lp2137
S'MQ.32L8.B1'
p2138
aS'MB.C32L8.B1'
p2139
aS'MB.B32L8.B1'
p2140
aS'MB.A32L8.B1'
p2141
aaa(lp2142
S'31L8_CV943'
p2143
a(lp2144
S'MQ.31L8.B1'
p2145
aS'MB.C31L8.B1'
p2146
aS'MB.B31L8.B1'
p2147
aS'MB.A31L8.B1'
p2148
aaa(lp2149
S'29L8_CV947'
p2150
a(lp2151
S'MQ.30L8.B1'
p2152
aS'MB.C30L8.B1'
p2153
aS'MB.B30L8.B1'
p2154
aS'MB.A30L8.B1'
p2155
aaa(lp2156
S'29L8_CV943'
p2157
a(lp2158
S'MQ.29L8.B1'
p2159
aS'MB.C29L8.B1'
p2160
aS'MB.B29L8.B1'
p2161
aS'MB.A29L8.B1'
p2162
aaa(lp2163
S'27L8_CV947'
p2164
a(lp2165
S'MQ.28L8.B1'
p2166
aS'MB.C28L8.B1'
p2167
aS'MB.B28L8.B1'
p2168
aS'MB.A28L8.B1'
p2169
aaa(lp2170
S'27L8_CV943'
p2171
a(lp2172
S'MQ.27L8.B1'
p2173
aS'MB.C27L8.B1'
p2174
aS'MB.B27L8.B1'
p2175
aS'MB.A27L8.B1'
p2176
aaa(lp2177
S'25L8_CV947'
p2178
a(lp2179
S'MQ.26L8.B1'
p2180
aS'MB.C26L8.B1'
p2181
aS'MB.B26L8.B1'
p2182
aS'MB.A26L8.B1'
p2183
aaa(lp2184
S'25L8_CV943'
p2185
a(lp2186
S'MQ.25L8.B1'
p2187
aS'MB.C25L8.B1'
p2188
aS'MB.B25L8.B1'
p2189
aS'MB.A25L8.B1'
p2190
aaa(lp2191
S'23L8_CV947'
p2192
a(lp2193
S'MQ.24L8.B1'
p2194
aS'MB.C24L8.B1'
p2195
aS'MB.B24L8.B1'
p2196
aS'MB.A24L8.B1'
p2197
aaa(lp2198
S'23L8_CV943'
p2199
a(lp2200
S'MQ.23L8.B1'
p2201
aS'MB.C23L8.B1'
p2202
aS'MB.B23L8.B1'
p2203
aS'MB.A23L8.B1'
p2204
aaa(lp2205
S'21L8_CV947'
p2206
a(lp2207
S'MQ.22L8.B1'
p2208
aS'MB.C22L8.B1'
p2209
aS'MB.B22L8.B1'
p2210
aS'MB.A22L8.B1'
p2211
aaa(lp2212
S'21L8_CV943'
p2213
a(lp2214
S'MQ.21L8.B1'
p2215
aS'MB.C21L8.B1'
p2216
aS'MB.B21L8.B1'
p2217
aS'MB.A21L8.B1'
p2218
aaa(lp2219
S'19L8_CV947'
p2220
a(lp2221
S'MQ.20L8.B1'
p2222
aS'MB.C20L8.B1'
p2223
aS'MB.B20L8.B1'
p2224
aS'MB.A20L8.B1'
p2225
aaa(lp2226
S'19L8_CV943'
p2227
a(lp2228
S'MQ.19L8.B1'
p2229
aS'MB.C19L8.B1'
p2230
aS'MB.B19L8.B1'
p2231
aS'MB.A19L8.B1'
p2232
aaa(lp2233
S'17L8_CV947'
p2234
a(lp2235
S'MQ.18L8.B1'
p2236
aS'MB.C18L8.B1'
p2237
aS'MB.B18L8.B1'
p2238
aS'MB.A18L8.B1'
p2239
aaa(lp2240
S'17L8_CV943'
p2241
a(lp2242
S'MQ.17L8.B1'
p2243
aS'MB.C17L8.B1'
p2244
aS'MB.B17L8.B1'
p2245
aS'MB.A17L8.B1'
p2246
aaa(lp2247
S'15L8_CV947'
p2248
a(lp2249
S'MQ.16L8.B1'
p2250
aS'MB.C16L8.B1'
p2251
aS'MB.B16L8.B1'
p2252
aS'MB.A16L8.B1'
p2253
aaa(lp2254
S'15L8_CV943'
p2255
a(lp2256
S'MQ.15L8.B1'
p2257
aS'MB.C15L8.B1'
p2258
aS'MB.B15L8.B1'
p2259
aS'MB.A15L8.B1'
p2260
aaa(lp2261
S'13L8_CV947'
p2262
a(lp2263
S'MQ.14L8.B1'
p2264
aS'MB.C14L8.B1'
p2265
aS'MB.B14L8.B1'
p2266
aS'MB.A14L8.B1'
p2267
aaa(lp2268
S'13L8_CV943'
p2269
a(lp2270
S'MQ.13L8.B1'
p2271
aS'MB.C13L8.B1'
p2272
aS'MB.B13L8.B1'
p2273
aS'MB.A13L8.B1'
p2274
aaa(lp2275
S'11L8_CV947'
p2276
a(lp2277
S'MQ.12L8.B1'
p2278
aS'MB.C12L8.B1'
p2279
aS'MB.B12L8.B1'
p2280
aS'MB.A12L8.B1'
p2281
aaatp2282
Rp2283
sS'S67'
p2284
g2
((lp2285
(lp2286
S'11R6_CV943'
p2287
a(lp2288
S'MQ.11R6.B1'
p2289
aS'MB.A12R6.B1'
p2290
aS'MB.B12R6.B1'
p2291
aS'MB.C12R6.B1'
p2292
aaa(lp2293
S'13R6_CV947'
p2294
a(lp2295
S'MQ.12R6.B1'
p2296
aS'MB.A13R6.B1'
p2297
aS'MB.B13R6.B1'
p2298
aS'MB.C13R6.B1'
p2299
aaa(lp2300
S'13R6_CV943'
p2301
a(lp2302
S'MQ.13R6.B1'
p2303
aS'MB.A14R6.B1'
p2304
aS'MB.B14R6.B1'
p2305
aS'MB.C14R6.B1'
p2306
aaa(lp2307
S'15R6_CV947'
p2308
a(lp2309
S'MQ.14R6.B1'
p2310
aS'MB.A15R6.B1'
p2311
aS'MB.B15R6.B1'
p2312
aS'MB.C15R6.B1'
p2313
aaa(lp2314
S'15R6_CV943'
p2315
a(lp2316
S'MQ.15R6.B1'
p2317
aS'MB.A16R6.B1'
p2318
aS'MB.B16R6.B1'
p2319
aS'MB.C16R6.B1'
p2320
aaa(lp2321
S'17R6_CV947'
p2322
a(lp2323
S'MQ.16R6.B1'
p2324
aS'MB.A17R6.B1'
p2325
aS'MB.B17R6.B1'
p2326
aS'MB.C17R6.B1'
p2327
aaa(lp2328
S'17R6_CV943'
p2329
a(lp2330
S'MQ.17R6.B1'
p2331
aS'MB.A18R6.B1'
p2332
aS'MB.B18R6.B1'
p2333
aS'MB.C18R6.B1'
p2334
aaa(lp2335
S'19R6_CV947'
p2336
a(lp2337
S'MQ.18R6.B1'
p2338
aS'MB.A19R6.B1'
p2339
aS'MB.B19R6.B1'
p2340
aS'MB.C19R6.B1'
p2341
aaa(lp2342
S'19R6_CV943'
p2343
a(lp2344
S'MQ.19R6.B1'
p2345
aS'MB.A20R6.B1'
p2346
aS'MB.B20R6.B1'
p2347
aS'MB.C20R6.B1'
p2348
aaa(lp2349
S'21R6_CV947'
p2350
a(lp2351
S'MQ.20R6.B1'
p2352
aS'MB.A21R6.B1'
p2353
aS'MB.B21R6.B1'
p2354
aS'MB.C21R6.B1'
p2355
aaa(lp2356
S'21R6_CV943'
p2357
a(lp2358
S'MQ.21R6.B1'
p2359
aS'MB.A22R6.B1'
p2360
aS'MB.B22R6.B1'
p2361
aS'MB.C22R6.B1'
p2362
aaa(lp2363
S'23R6_CV947'
p2364
a(lp2365
S'MQ.22R6.B1'
p2366
aS'MB.A23R6.B1'
p2367
aS'MB.B23R6.B1'
p2368
aS'MB.C23R6.B1'
p2369
aaa(lp2370
S'23R6_CV943'
p2371
a(lp2372
S'MQ.23R6.B1'
p2373
aS'MB.A24R6.B1'
p2374
aS'MB.B24R6.B1'
p2375
aS'MB.C24R6.B1'
p2376
aaa(lp2377
S'25R6_CV947'
p2378
a(lp2379
S'MQ.24R6.B1'
p2380
aS'MB.A25R6.B1'
p2381
aS'MB.B25R6.B1'
p2382
aS'MB.C25R6.B1'
p2383
aaa(lp2384
S'25R6_CV943'
p2385
a(lp2386
S'MQ.25R6.B1'
p2387
aS'MB.A26R6.B1'
p2388
aS'MB.B26R6.B1'
p2389
aS'MB.C26R6.B1'
p2390
aaa(lp2391
S'27R6_CV947'
p2392
a(lp2393
S'MQ.26R6.B1'
p2394
aS'MB.A27R6.B1'
p2395
aS'MB.B27R6.B1'
p2396
aS'MB.C27R6.B1'
p2397
aaa(lp2398
S'27R6_CV943'
p2399
a(lp2400
S'MQ.27R6.B1'
p2401
aS'MB.A28R6.B1'
p2402
aS'MB.B28R6.B1'
p2403
aS'MB.C28R6.B1'
p2404
aaa(lp2405
S'29R6_CV947'
p2406
a(lp2407
S'MQ.28R6.B1'
p2408
aS'MB.A29R6.B1'
p2409
aS'MB.B29R6.B1'
p2410
aS'MB.C29R6.B1'
p2411
aaa(lp2412
S'29R6_CV943'
p2413
a(lp2414
S'MQ.29R6.B1'
p2415
aS'MB.A30R6.B1'
p2416
aS'MB.B30R6.B1'
p2417
aS'MB.C30R6.B1'
p2418
aaa(lp2419
S'31R6_CV947'
p2420
a(lp2421
S'MQ.30R6.B1'
p2422
aS'MB.A31R6.B1'
p2423
aS'MB.B31R6.B1'
p2424
aS'MB.C31R6.B1'
p2425
aaa(lp2426
S'31R6_CV943'
p2427
a(lp2428
S'MQ.31R6.B1'
p2429
aS'MB.A32R6.B1'
p2430
aS'MB.B32R6.B1'
p2431
aS'MB.C32R6.B1'
p2432
aaa(lp2433
S'33R6_CV947'
p2434
a(lp2435
S'MQ.32R6.B1'
p2436
aS'MB.A33R6.B1'
p2437
aS'MB.B33R6.B1'
p2438
aS'MB.C33R6.B1'
p2439
aaa(lp2440
S'33R6_CV943'
p2441
a(lp2442
S'MQ.33R6.B1'
p2443
aS'MB.A34R6.B1'
p2444
aS'MB.B34R6.B1'
p2445
aS'MB.C34R6.B1'
p2446
aaa(lp2447
S'33L7_CV947'
p2448
a(lp2449
S'MQ.34R6.B1'
p2450
aS'MB.C34L7.B1'
p2451
aS'MB.B34L7.B1'
p2452
aS'MB.A34L7.B1'
p2453
aaa(lp2454
S'33L7_CV943'
p2455
a(lp2456
S'MQ.33L7.B1'
p2457
aS'MB.C33L7.B1'
p2458
aS'MB.B33L7.B1'
p2459
aS'MB.A33L7.B1'
p2460
aaa(lp2461
S'31L7_CV947'
p2462
a(lp2463
S'MQ.32L7.B1'
p2464
aS'MB.C32L7.B1'
p2465
aS'MB.B32L7.B1'
p2466
aS'MB.A32L7.B1'
p2467
aaa(lp2468
S'31L7_CV943'
p2469
a(lp2470
S'MQ.31L7.B1'
p2471
aS'MB.C31L7.B1'
p2472
aS'MB.B31L7.B1'
p2473
aS'MB.A31L7.B1'
p2474
aaa(lp2475
S'29L7_CV947'
p2476
a(lp2477
S'MQ.30L7.B1'
p2478
aS'MB.C30L7.B1'
p2479
aS'MB.B30L7.B1'
p2480
aS'MB.A30L7.B1'
p2481
aaa(lp2482
S'29L7_CV943'
p2483
a(lp2484
S'MQ.29L7.B1'
p2485
aS'MB.C29L7.B1'
p2486
aS'MB.B29L7.B1'
p2487
aS'MB.A29L7.B1'
p2488
aaa(lp2489
S'27L7_CV947'
p2490
a(lp2491
S'MQ.28L7.B1'
p2492
aS'MB.C28L7.B1'
p2493
aS'MB.B28L7.B1'
p2494
aS'MB.A28L7.B1'
p2495
aaa(lp2496
S'27L7_CV943'
p2497
a(lp2498
S'MQ.27L7.B1'
p2499
aS'MB.C27L7.B1'
p2500
aS'MB.B27L7.B1'
p2501
aS'MB.A27L7.B1'
p2502
aaa(lp2503
S'25L7_CV947'
p2504
a(lp2505
S'MQ.26L7.B1'
p2506
aS'MB.C26L7.B1'
p2507
aS'MB.B26L7.B1'
p2508
aS'MB.A26L7.B1'
p2509
aaa(lp2510
S'25L7_CV943'
p2511
a(lp2512
S'MQ.25L7.B1'
p2513
aS'MB.C25L7.B1'
p2514
aS'MB.B25L7.B1'
p2515
aS'MB.A25L7.B1'
p2516
aaa(lp2517
S'23L7_CV947'
p2518
a(lp2519
S'MQ.24L7.B1'
p2520
aS'MB.C24L7.B1'
p2521
aS'MB.B24L7.B1'
p2522
aS'MB.A24L7.B1'
p2523
aaa(lp2524
S'23L7_CV943'
p2525
a(lp2526
S'MQ.23L7.B1'
p2527
aS'MB.C23L7.B1'
p2528
aS'MB.B23L7.B1'
p2529
aS'MB.A23L7.B1'
p2530
aaa(lp2531
S'21L7_CV947'
p2532
a(lp2533
S'MQ.22L7.B1'
p2534
aS'MB.C22L7.B1'
p2535
aS'MB.B22L7.B1'
p2536
aS'MB.A22L7.B1'
p2537
aaa(lp2538
S'21L7_CV943'
p2539
a(lp2540
S'MQ.21L7.B1'
p2541
aS'MB.C21L7.B1'
p2542
aS'MB.B21L7.B1'
p2543
aS'MB.A21L7.B1'
p2544
aaa(lp2545
S'19L7_CV947'
p2546
a(lp2547
S'MQ.20L7.B1'
p2548
aS'MB.C20L7.B1'
p2549
aS'MB.B20L7.B1'
p2550
aS'MB.A20L7.B1'
p2551
aaa(lp2552
S'19L7_CV943'
p2553
a(lp2554
S'MQ.19L7.B1'
p2555
aS'MB.C19L7.B1'
p2556
aS'MB.B19L7.B1'
p2557
aS'MB.A19L7.B1'
p2558
aaa(lp2559
S'17L7_CV947'
p2560
a(lp2561
S'MQ.18L7.B1'
p2562
aS'MB.C18L7.B1'
p2563
aS'MB.B18L7.B1'
p2564
aS'MB.A18L7.B1'
p2565
aaa(lp2566
S'17L7_CV943'
p2567
a(lp2568
S'MQ.17L7.B1'
p2569
aS'MB.C17L7.B1'
p2570
aS'MB.B17L7.B1'
p2571
aS'MB.A17L7.B1'
p2572
aaa(lp2573
S'15L7_CV947'
p2574
a(lp2575
S'MQ.16L7.B1'
p2576
aS'MB.C16L7.B1'
p2577
aS'MB.B16L7.B1'
p2578
aS'MB.A16L7.B1'
p2579
aaa(lp2580
S'15L7_CV943'
p2581
a(lp2582
S'MQ.15L7.B1'
p2583
aS'MB.C15L7.B1'
p2584
aS'MB.B15L7.B1'
p2585
aS'MB.A15L7.B1'
p2586
aaa(lp2587
S'13L7_CV947'
p2588
a(lp2589
S'MQ.14L7.B1'
p2590
aS'MB.C14L7.B1'
p2591
aS'MB.B14L7.B1'
p2592
aS'MB.A14L7.B1'
p2593
aaa(lp2594
S'13L7_CV943'
p2595
a(lp2596
S'MQ.13L7.B1'
p2597
aS'MB.C13L7.B1'
p2598
aS'MB.B13L7.B1'
p2599
aS'MB.A13L7.B1'
p2600
aaa(lp2601
S'11L7_CV947'
p2602
a(lp2603
S'MQ.12L7.B1'
p2604
aS'MB.C12L7.B1'
p2605
aS'MB.B12L7.B1'
p2606
aS'MB.A12L7.B1'
p2607
aaatp2608
Rp2609
s.